target datalayout = "e-m:e-p270:32:32-p271:32:32-p272:64:64-i64:64-i128:128-f80:128-n8:16:32:64-S128"
target triple = "x86_64-pc-linux-gnu"

%struct.lxb_html_tokenizer = type { ptr, ptr, ptr, ptr, ptr, ptr, ptr, ptr, ptr, ptr, ptr, ptr, ptr, ptr, ptr, i64, ptr, ptr, ptr, ptr, ptr, i64, i64, ptr, ptr, i64, i64, i32, i32, i8, i32, i32, i8, ptr, i64 }
%struct.lxb_html_token_t = type { ptr, ptr, i64, i64, ptr, ptr, ptr, ptr, ptr, i64, i64, i32 }

; Function Attrs: nounwind uwtable
define internal void @lxb_html_token_clean(ptr noundef %0) #0 {
  %2 = alloca ptr, align 8
  store ptr %0, ptr %2, align 8
  %3 = load ptr, ptr %2, align 8
  call void @llvm.memset.p0.i64(ptr align 8 %3, i8 0, i64 96, i1 false)
  ret void
}

; Function Attrs: nounwind uwtable
define hidden ptr @lxb_html_tokenizer_state_self_closing_start_tag(ptr noundef %0, ptr noundef %1, ptr noundef %2) #0 {
  %4 = alloca ptr, align 8
  %5 = alloca ptr, align 8
  %6 = alloca ptr, align 8
  %7 = alloca ptr, align 8
  store ptr %0, ptr %5, align 8
  store ptr %1, ptr %6, align 8
  store ptr %2, ptr %7, align 8
  %8 = load ptr, ptr %6, align 8
  %9 = load i8, ptr %8, align 1
  %10 = zext i8 %9 to i32
  switch i32 %10, label %90 [
    i32 62, label %11
    i32 0, label %73
  ]

11:                                               ; preds = %3
  %12 = load ptr, ptr %5, align 8
  %13 = getelementptr inbounds %struct.lxb_html_tokenizer, ptr %12, i32 0, i32 0
  store ptr @lxb_html_tokenizer_state_data_before, ptr %13, align 8
  %14 = load ptr, ptr %5, align 8
  %15 = getelementptr inbounds %struct.lxb_html_tokenizer, ptr %14, i32 0, i32 8
  %16 = load ptr, ptr %15, align 8
  %17 = getelementptr inbounds %struct.lxb_html_token_t, ptr %16, i32 0, i32 11
  %18 = load i32, ptr %17, align 8
  %19 = or i32 %18, 2
  store i32 %19, ptr %17, align 8
  br label %20

20:                                               ; preds = %11
  %21 = load ptr, ptr %5, align 8
  %22 = getelementptr inbounds %struct.lxb_html_tokenizer, ptr %21, i32 0, i32 8
  %23 = load ptr, ptr %22, align 8
  %24 = getelementptr inbounds %struct.lxb_html_token_t, ptr %23, i32 0, i32 0
  %25 = load ptr, ptr %24, align 8
  %26 = load ptr, ptr %5, align 8
  %27 = getelementptr inbounds %struct.lxb_html_tokenizer, ptr %26, i32 0, i32 8
  %28 = load ptr, ptr %27, align 8
  %29 = getelementptr inbounds %struct.lxb_html_token_t, ptr %28, i32 0, i32 1
  %30 = load ptr, ptr %29, align 8
  %31 = icmp ne ptr %25, %30
  br i1 %31, label %32, label %61

32:                                               ; preds = %20
  %33 = load ptr, ptr %5, align 8
  %34 = getelementptr inbounds %struct.lxb_html_tokenizer, ptr %33, i32 0, i32 2
  %35 = load ptr, ptr %34, align 8
  %36 = load ptr, ptr %5, align 8
  %37 = load ptr, ptr %5, align 8
  %38 = getelementptr inbounds %struct.lxb_html_tokenizer, ptr %37, i32 0, i32 8
  %39 = load ptr, ptr %38, align 8
  %40 = load ptr, ptr %5, align 8
  %41 = getelementptr inbounds %struct.lxb_html_tokenizer, ptr %40, i32 0, i32 3
  %42 = load ptr, ptr %41, align 8
  %43 = call ptr %35(ptr noundef %36, ptr noundef %39, ptr noundef %42)
  %44 = load ptr, ptr %5, align 8
  %45 = getelementptr inbounds %struct.lxb_html_tokenizer, ptr %44, i32 0, i32 8
  store ptr %43, ptr %45, align 8
  %46 = load ptr, ptr %5, align 8
  %47 = getelementptr inbounds %struct.lxb_html_tokenizer, ptr %46, i32 0, i32 8
  %48 = load ptr, ptr %47, align 8
  %49 = icmp eq ptr %48, null
  br i1 %49, label %50, label %60

50:                                               ; preds = %32
  %51 = load ptr, ptr %5, align 8
  %52 = getelementptr inbounds %struct.lxb_html_tokenizer, ptr %51, i32 0, i32 31
  %53 = load i32, ptr %52, align 8
  %54 = icmp eq i32 %53, 0
  br i1 %54, label %55, label %58

55:                                               ; preds = %50
  %56 = load ptr, ptr %5, align 8
  %57 = getelementptr inbounds %struct.lxb_html_tokenizer, ptr %56, i32 0, i32 31
  store i32 1, ptr %57, align 8
  br label %58

58:                                               ; preds = %55, %50
  %59 = load ptr, ptr %7, align 8
  store ptr %59, ptr %4, align 8
  br label %99

60:                                               ; preds = %32
  br label %61

61:                                               ; preds = %60, %20
  %62 = load ptr, ptr %5, align 8
  %63 = getelementptr inbounds %struct.lxb_html_tokenizer, ptr %62, i32 0, i32 8
  %64 = load ptr, ptr %63, align 8
  call void @lxb_html_token_clean(ptr noundef %64)
  %65 = load ptr, ptr %5, align 8
  %66 = getelementptr inbounds %struct.lxb_html_tokenizer, ptr %65, i32 0, i32 16
  %67 = load ptr, ptr %66, align 8
  %68 = load ptr, ptr %5, align 8
  %69 = getelementptr inbounds %struct.lxb_html_tokenizer, ptr %68, i32 0, i32 17
  store ptr %67, ptr %69, align 8
  br label %70

70:                                               ; preds = %61
  %71 = load ptr, ptr %6, align 8
  %72 = getelementptr inbounds i8, ptr %71, i64 1
  store ptr %72, ptr %4, align 8
  br label %99

73:                                               ; preds = %3
  %74 = load ptr, ptr %5, align 8
  %75 = getelementptr inbounds %struct.lxb_html_tokenizer, ptr %74, i32 0, i32 32
  %76 = load i8, ptr %75, align 4
  %77 = trunc i8 %76 to i1
  br i1 %77, label %78, label %89

78:                                               ; preds = %73
  %79 = load ptr, ptr %5, align 8
  %80 = getelementptr inbounds %struct.lxb_html_tokenizer, ptr %79, i32 0, i32 11
  %81 = load ptr, ptr %80, align 8
  %82 = load ptr, ptr %5, align 8
  %83 = getelementptr inbounds %struct.lxb_html_tokenizer, ptr %82, i32 0, i32 8
  %84 = load ptr, ptr %83, align 8
  %85 = getelementptr inbounds %struct.lxb_html_token_t, ptr %84, i32 0, i32 1
  %86 = load ptr, ptr %85, align 8
  %87 = call ptr @lxb_html_tokenizer_error_add(ptr noundef %81, ptr noundef %86, i32 noundef 16)
  %88 = load ptr, ptr %7, align 8
  store ptr %88, ptr %4, align 8
  br label %99

89:                                               ; preds = %73
  br label %90

90:                                               ; preds = %89, %3
  %91 = load ptr, ptr %5, align 8
  %92 = getelementptr inbounds %struct.lxb_html_tokenizer, ptr %91, i32 0, i32 11
  %93 = load ptr, ptr %92, align 8
  %94 = load ptr, ptr %6, align 8
  %95 = call ptr @lxb_html_tokenizer_error_add(ptr noundef %93, ptr noundef %94, i32 noundef 47)
  %96 = load ptr, ptr %5, align 8
  %97 = getelementptr inbounds %struct.lxb_html_tokenizer, ptr %96, i32 0, i32 0
  store ptr @lxb_html_tokenizer_state_before_attribute_name, ptr %97, align 8
  %98 = load ptr, ptr %6, align 8
  store ptr %98, ptr %4, align 8
  br label %99

99:                                               ; preds = %90, %78, %70, %58
  %100 = load ptr, ptr %4, align 8
  ret ptr %100
}