; Function Attrs: nounwind uwtable
define hidden ptr @lxb_html_tokenizer_state_self_closing_start_tag(ptr noundef %0, ptr noundef %1, ptr noundef readnone %2) #1 {
  %4 = load i8, ptr %1, align 1
  switch i8 %4, label %45 [
    i8 62, label %5
    i8 0, label %33
  ]

5:                                                ; preds = %3
  store ptr @lxb_html_tokenizer_state_data_before, ptr %0, align 8
  %6 = getelementptr inbounds i8, ptr %0, i64 64
  %7 = load ptr, ptr %6, align 8
  %8 = getelementptr inbounds i8, ptr %7, i64 88
  %9 = load i32, ptr %8, align 8
  %10 = or i32 %9, 2
  store i32 %10, ptr %8, align 8
  %11 = load ptr, ptr %6, align 8
  %12 = load ptr, ptr %11, align 8
  %13 = getelementptr inbounds i8, ptr %11, i64 8
  %14 = load ptr, ptr %13, align 8
  %.not27 = icmp eq ptr %12, %14
  br i1 %.not27, label %27, label %15

15:                                               ; preds = %5
  %16 = getelementptr inbounds i8, ptr %0, i64 16
  %17 = load ptr, ptr %16, align 8
  %18 = getelementptr inbounds i8, ptr %0, i64 24
  %19 = load ptr, ptr %18, align 8
  %20 = tail call ptr %17(ptr noundef nonnull %0, ptr noundef nonnull %11, ptr noundef %19) #5
  store ptr %20, ptr %6, align 8
  %21 = icmp eq ptr %20, null
  br i1 %21, label %22, label %27

22:                                               ; preds = %15
  %23 = getelementptr inbounds i8, ptr %0, i64 232
  %24 = load i32, ptr %23, align 8
  %25 = icmp eq i32 %24, 0
  br i1 %25, label %26, label %49

26:                                               ; preds = %22
  store i32 1, ptr %23, align 8
  br label %49

27:                                               ; preds = %15, %5
  %28 = phi ptr [ %20, %15 ], [ %11, %5 ]
  tail call void @llvm.memset.p0.i64(ptr noundef nonnull align 8 dereferenceable(96) %28, i8 0, i64 96, i1 false)
  %29 = getelementptr inbounds i8, ptr %0, i64 128
  %30 = load ptr, ptr %29, align 8
  %31 = getelementptr inbounds i8, ptr %0, i64 136
  store ptr %30, ptr %31, align 8
  %32 = getelementptr inbounds i8, ptr %1, i64 1
  br label %49

33:                                               ; preds = %3
  %34 = getelementptr inbounds i8, ptr %0, i64 236
  %35 = load i8, ptr %34, align 4
  %36 = and i8 %35, 1
  %.not = icmp eq i8 %36, 0
  br i1 %.not, label %45, label %37

37:                                               ; preds = %33
  %38 = getelementptr inbounds i8, ptr %0, i64 88
  %39 = load ptr, ptr %38, align 8
  %40 = getelementptr inbounds i8, ptr %0, i64 64
  %41 = load ptr, ptr %40, align 8
  %42 = getelementptr inbounds i8, ptr %41, i64 8
  %43 = load ptr, ptr %42, align 8
  %44 = tail call ptr @lxb_html_tokenizer_error_add(ptr noundef %39, ptr noundef %43, i32 noundef 16) #5
  br label %49

45:                                               ; preds = %33, %3
  %46 = getelementptr inbounds i8, ptr %0, i64 88
  %47 = load ptr, ptr %46, align 8
  %48 = tail call ptr @lxb_html_tokenizer_error_add(ptr noundef %47, ptr noundef nonnull %1, i32 noundef 47) #5
  store ptr @lxb_html_tokenizer_state_before_attribute_name, ptr %0, align 8
  br label %49

49:                                               ; preds = %22, %26, %45, %37, %27
  %.0 = phi ptr [ %1, %45 ], [ %2, %37 ], [ %32, %27 ], [ %2, %26 ], [ %2, %22 ]
  ret ptr %.0
}